EXPORTS
	_ZN12RSharedQueue3TopEi @ 1 NONAME ; CODE
	_ZN12RSharedQueue7ConnectEv @ 2 NONAME ; CODE
	_ZN12RSharedQueue7DequeueEi @ 3 NONAME ; CODE
	_ZN12RSharedQueue7DoEmptyEv @ 4 NONAME ; CODE
	_ZN12RSharedQueue7EnqueueEi10TCmdStructRK6TDesC8 @ 5 NONAME ; CODE
	_ZN12RSharedQueue7EnqueueEi8TCmdTypeiiRK6TDesC8 @ 6 NONAME ; CODE
	_ZN12RSharedQueue7IsEmptyEi @ 7 NONAME ; CODE
	_ZN12RSharedQueue7LockTopEi @ 8 NONAME ; CODE
	_ZN12RSharedQueue9TopParamLEi @ 9 NONAME ; CODE
	_ZN22CAbstractQueueEndPoint13CanReceiveCmdEv @ 10 NONAME ; CODE
	_ZN22CAbstractQueueEndPoint13DoEmptyQueueLEv @ 11 NONAME ; CODE
	_ZN22CAbstractQueueEndPoint13SetReceiveCmdEi @ 12 NONAME ; CODE
	_ZN22CAbstractQueueEndPoint14BaseConstructLERK6TDesC8 @ 13 NONAME ; CODE
	_ZN22CAbstractQueueEndPoint16PropertyChangedLE4TUidji @ 14 NONAME ; CODE
	_ZN22CAbstractQueueEndPoint17SubmitNewCommandLEi10TCmdStruct @ 15 NONAME ; CODE
	_ZN22CAbstractQueueEndPoint24MarkCommandAsDispatchedLEv @ 16 NONAME ; CODE
	_ZN22CAbstractQueueEndPoint25ShouldReceiveThisCommandLE10TCmdStruct @ 17 NONAME ; CODE
	_ZN22CAbstractQueueEndPoint4TypeEv @ 18 NONAME ; CODE
	_ZN22CAbstractQueueEndPointC1Ei @ 19 NONAME ; CODE
	_ZN22CAbstractQueueEndPointC2Ei @ 20 NONAME ; CODE
	_ZN22CAbstractQueueEndPointD0Ev @ 21 NONAME ; CODE
	_ZN22CAbstractQueueEndPointD1Ev @ 22 NONAME ; CODE
	_ZN22CAbstractQueueEndPointD2Ev @ 23 NONAME ; CODE
	_ZTI15CPubSubObserver @ 24 NONAME ; DATA
	_ZTI22CAbstractQueueEndPoint @ 25 NONAME ; DATA
	_ZTV15CPubSubObserver @ 26 NONAME ; DATA
	_ZTV22CAbstractQueueEndPoint @ 27 NONAME ; DATA
	_ZThn4_N22CAbstractQueueEndPoint16PropertyChangedLE4TUidji @ 28 NONAME ; CODE
	_ZN22CAbstractQueueEndPoint11FinishedJobEv @ 29 NONAME ; CODE
	_ZN22CAbstractQueueEndPoint14SetFinishedJobEi @ 30 NONAME ; CODE

